target datalayout = "e-m:e-p270:32:32-p271:32:32-p272:64:64-i64:64-i128:128-f80:128-n8:16:32:64-S128"
target triple = "x86_64-pc-linux-gnu"

%union.pthread_mutex_t = type { %struct.__pthread_mutex_s }
%struct.__pthread_mutex_s = type { i32, i32, i32, i32, i32, i16, i16, %struct.__pthread_internal_list }
%struct.__pthread_internal_list = type { ptr, ptr }

; Function Attrs: nounwind uwtable
define dso_local i32 @main() #0 {
  %1 = alloca i32, align 4
  %2 = alloca %union.pthread_mutex_t, align 8
  %3 = alloca i32, align 4
  %4 = alloca i64, align 8
  %5 = alloca i32, align 4
  %6 = alloca ptr, align 8
  store i32 0, ptr %1, align 4
  call void @llvm.lifetime.start.p0(i64 40, ptr %2) #4
  call void @llvm.lifetime.start.p0(i64 4, ptr %3) #4
  call void @llvm.lifetime.start.p0(i64 8, ptr %4) #4
  call void @llvm.lifetime.start.p0(i64 4, ptr %5) #4
  store i32 0, ptr %5, align 4, !tbaa !4
  call void @llvm.lifetime.start.p0(i64 8, ptr %6) #4
  store ptr null, ptr %6, align 8, !tbaa !8
  %7 = call i32 @pthread_key_create(ptr noundef %3, ptr noundef null) #4
  %8 = load i32, ptr %5, align 4, !tbaa !4
  %9 = or i32 %8, %7
  store i32 %9, ptr %5, align 4, !tbaa !4
  %10 = call i32 @pthread_mutex_init(ptr noundef %2, ptr noundef null) #4
  %11 = load i32, ptr %5, align 4, !tbaa !4
  %12 = or i32 %11, %10
  store i32 %12, ptr %5, align 4, !tbaa !4
  %13 = call i32 @pthread_mutex_lock(ptr noundef %2) #4
  %14 = load i32, ptr %5, align 4, !tbaa !4
  %15 = or i32 %14, %13
  store i32 %15, ptr %5, align 4, !tbaa !4
  %16 = call i32 @pthread_mutex_unlock(ptr noundef %2) #4
  %17 = load i32, ptr %5, align 4, !tbaa !4
  %18 = or i32 %17, %16
  store i32 %18, ptr %5, align 4, !tbaa !4
  %19 = load ptr, ptr %6, align 8, !tbaa !8
  %20 = load ptr, ptr %6, align 8, !tbaa !8
  %21 = call i32 @pthread_create(ptr noundef %4, ptr noundef %19, ptr noundef @noop, ptr noundef %20) #4
  %22 = load i32, ptr %5, align 4, !tbaa !4
  %23 = or i32 %22, %21
  store i32 %23, ptr %5, align 4, !tbaa !4
  %24 = load i64, ptr %4, align 8, !tbaa !10
  %25 = call i32 @pthread_join(i64 noundef %24, ptr noundef %6)
  %26 = load i32, ptr %5, align 4, !tbaa !4
  %27 = or i32 %26, %25
  store i32 %27, ptr %5, align 4, !tbaa !4
  %28 = load i32, ptr %5, align 4, !tbaa !4
  call void @llvm.lifetime.end.p0(i64 8, ptr %6) #4
  call void @llvm.lifetime.end.p0(i64 4, ptr %5) #4
  call void @llvm.lifetime.end.p0(i64 8, ptr %4) #4
  call void @llvm.lifetime.end.p0(i64 4, ptr %3) #4
  call void @llvm.lifetime.end.p0(i64 40, ptr %2) #4
  ret i32 %28
}

; Function Attrs: nocallback nofree nosync nounwind willreturn memory(argmem: readwrite)
declare void @llvm.lifetime.start.p0(i64 immarg, ptr captures(none)) #1

; Function Attrs: nounwind
declare i32 @pthread_key_create(ptr noundef, ptr noundef) #2

; Function Attrs: nounwind
declare i32 @pthread_mutex_init(ptr noundef, ptr noundef) #2

; Function Attrs: nounwind
declare i32 @pthread_mutex_lock(ptr noundef) #2

; Function Attrs: nounwind
declare i32 @pthread_mutex_unlock(ptr noundef) #2

; Function Attrs: nounwind
declare i32 @pthread_create(ptr noundef, ptr noundef, ptr noundef, ptr noundef) #2

; Function Attrs: nounwind uwtable
define internal ptr @noop(ptr noundef %0) #0 {
  %2 = alloca ptr, align 8
  store ptr %0, ptr %2, align 8, !tbaa !8
  %3 = load ptr, ptr %2, align 8, !tbaa !8
  ret ptr %3
}

declare i32 @pthread_join(i64 noundef, ptr noundef) #3

; Function Attrs: nocallback nofree nosync nounwind willreturn memory(argmem: readwrite)
declare void @llvm.lifetime.end.p0(i64 immarg, ptr captures(none)) #1


!llvm.module.flags = !{!0, !1, !2, !3}

!0 = !{i32 1, !"wchar_size", i32 4}
!1 = !{i32 8, !"PIC Level", i32 2}
!2 = !{i32 7, !"PIE Level", i32 2}
!3 = !{i32 7, !"uwtable", i32 2}
!4 = !{!5, !5, i64 0}
!5 = !{!"int", !6, i64 0}
!6 = !{!"omnipotent char", !7, i64 0}
!7 = !{!"Simple C/C++ TBAA"}
!8 = !{!9, !9, i64 0}
!9 = !{!"any pointer", !6, i64 0}
!10 = !{!11, !11, i64 0}
!11 = !{!"long", !6, i64 0}
