; ModuleID = 'bench/git/original/conftest.ll'
source_filename = "bench/git/original/conftest.ll"
target datalayout = "e-m:e-p270:32:32-p271:32:32-p272:64:64-i64:64-i128:128-f80:128-n8:16:32:64-S128"
target triple = "x86_64-pc-linux-gnu"

%union.pthread_mutex_t = type { %struct.__pthread_mutex_s }
%struct.__pthread_mutex_s = type { i32, i32, i32, i32, i32, i16, i16, %struct.__pthread_internal_list }
%struct.__pthread_internal_list = type { ptr, ptr }

; Function Attrs: nounwind uwtable
define dso_local i32 @main() local_unnamed_addr #0 {
  %1 = alloca %union.pthread_mutex_t, align 8
  %2 = alloca i32, align 4
  %3 = alloca i64, align 8
  %4 = alloca ptr, align 8
  call void @llvm.lifetime.start.p0(i64 40, ptr nonnull %1) #5
  call void @llvm.lifetime.start.p0(i64 4, ptr nonnull %2) #5
  call void @llvm.lifetime.start.p0(i64 8, ptr nonnull %3) #5
  call void @llvm.lifetime.start.p0(i64 8, ptr nonnull %4) #5
  store ptr null, ptr %4, align 8, !tbaa !4
  %5 = call i32 @pthread_key_create(ptr noundef nonnull %2, ptr noundef null) #5
  %6 = call i32 @pthread_mutex_init(ptr noundef nonnull %1, ptr noundef null) #5
  %7 = or i32 %6, %5
  %8 = call i32 @pthread_mutex_lock(ptr noundef nonnull %1) #5
  %9 = or i32 %7, %8
  %10 = call i32 @pthread_mutex_unlock(ptr noundef nonnull %1) #5
  %11 = or i32 %9, %10
  %12 = call i32 @pthread_create(ptr noundef nonnull %3, ptr noundef null, ptr noundef nonnull @noop, ptr noundef null) #5
  %13 = or i32 %11, %12
  %14 = load i64, ptr %3, align 8, !tbaa !8
  %15 = call i32 @pthread_join(i64 noundef %14, ptr noundef nonnull %4) #5
  %16 = or i32 %13, %15
  call void @llvm.lifetime.end.p0(i64 8, ptr nonnull %4) #5
  call void @llvm.lifetime.end.p0(i64 8, ptr nonnull %3) #5
  call void @llvm.lifetime.end.p0(i64 4, ptr nonnull %2) #5
  call void @llvm.lifetime.end.p0(i64 40, ptr nonnull %1) #5
  ret i32 %16
}

; Function Attrs: mustprogress nocallback nofree nosync nounwind willreturn memory(argmem: readwrite)
declare void @llvm.lifetime.start.p0(i64 immarg, ptr captures(none)) #1

; Function Attrs: nounwind
declare i32 @pthread_key_create(ptr noundef, ptr noundef) local_unnamed_addr #2

; Function Attrs: nounwind
declare i32 @pthread_mutex_init(ptr noundef, ptr noundef) local_unnamed_addr #2

; Function Attrs: nounwind
declare i32 @pthread_mutex_lock(ptr noundef) local_unnamed_addr #2

; Function Attrs: nounwind
declare i32 @pthread_mutex_unlock(ptr noundef) local_unnamed_addr #2

; Function Attrs: nounwind
declare i32 @pthread_create(ptr noundef, ptr noundef, ptr noundef, ptr noundef) local_unnamed_addr #2

; Function Attrs: mustprogress nofree norecurse nosync nounwind willreturn memory(none) uwtable
define internal noundef ptr @noop(ptr noundef readnone returned %0) #3 {
  ret ptr %0
}

declare i32 @pthread_join(i64 noundef, ptr noundef) local_unnamed_addr #4

; Function Attrs: mustprogress nocallback nofree nosync nounwind willreturn memory(argmem: readwrite)
declare void @llvm.lifetime.end.p0(i64 immarg, ptr captures(none)) #1


!llvm.module.flags = !{!0, !1, !2, !3}

!0 = !{i32 1, !"wchar_size", i32 4}
!1 = !{i32 8, !"PIC Level", i32 2}
!2 = !{i32 7, !"PIE Level", i32 2}
!3 = !{i32 7, !"uwtable", i32 2}
!4 = !{!5, !5, i64 0}
!5 = !{!"any pointer", !6, i64 0}
!6 = !{!"omnipotent char", !7, i64 0}
!7 = !{!"Simple C/C++ TBAA"}
!8 = !{!9, !9, i64 0}
!9 = !{!"long", !6, i64 0}
